target datalayout = "e-m:e-p270:32:32-p271:32:32-p272:64:64-i64:64-i128:128-f80:128-n8:16:32:64-S128"
target triple = "x86_64-pc-linux-gnu"

%struct.PACKET = type { ptr, i64 }

@.str.25 = private unnamed_addr constant [29 x i8] c"../openssl/test/packettest.c\00", align 1
@.str.26 = private unnamed_addr constant [31 x i8] c"PACKET_buf_init(&pkt, buf1, 4)\00", align 1
@.str.27 = private unnamed_addr constant [23 x i8] c"PACKET_remaining(&pkt)\00", align 1
@.str.28 = private unnamed_addr constant [2 x i8] c"4\00", align 1
@.str.29 = private unnamed_addr constant [37 x i8] c"PACKET_buf_init(&pkt, buf1, BUF_LEN)\00", align 1
@.str.30 = private unnamed_addr constant [8 x i8] c"BUF_LEN\00", align 1
@.str.31 = private unnamed_addr constant [32 x i8] c"PACKET_buf_init(&pkt, buf1, -1)\00", align 1

; Function Attrs: inlinehint nounwind uwtable
define internal i64 @PACKET_remaining(ptr noundef %0) #4 {
  %2 = alloca ptr, align 8
  store ptr %0, ptr %2, align 8, !tbaa !33
  %3 = load ptr, ptr %2, align 8, !tbaa !33
  %4 = getelementptr inbounds nuw %struct.PACKET, ptr %3, i32 0, i32 1
  %5 = load i64, ptr %4, align 8, !tbaa !31
  ret i64 %5
}

; Function Attrs: inlinehint nounwind uwtable
define internal i32 @PACKET_buf_init(ptr noundef %0, ptr noundef %1, i64 noundef %2) #4 {
  %4 = alloca i32, align 4
  %5 = alloca ptr, align 8
  %6 = alloca ptr, align 8
  %7 = alloca i64, align 8
  store ptr %0, ptr %5, align 8, !tbaa !33
  store ptr %1, ptr %6, align 8, !tbaa !13
  store i64 %2, ptr %7, align 8, !tbaa !11
  %8 = load i64, ptr %7, align 8, !tbaa !11
  %9 = icmp ugt i64 %8, 9223372036854775807
  br i1 %9, label %10, label %11

10:                                               ; preds = %3
  store i32 0, ptr %4, align 4
  br label %18

11:                                               ; preds = %3
  %12 = load ptr, ptr %6, align 8, !tbaa !13
  %13 = load ptr, ptr %5, align 8, !tbaa !33
  %14 = getelementptr inbounds nuw %struct.PACKET, ptr %13, i32 0, i32 0
  store ptr %12, ptr %14, align 8, !tbaa !29
  %15 = load i64, ptr %7, align 8, !tbaa !11
  %16 = load ptr, ptr %5, align 8, !tbaa !33
  %17 = getelementptr inbounds nuw %struct.PACKET, ptr %16, i32 0, i32 1
  store i64 %15, ptr %17, align 8, !tbaa !31
  store i32 1, ptr %4, align 4
  br label %18

18:                                               ; preds = %11, %10
  %19 = load i32, ptr %4, align 4
  ret i32 %19
}

; Function Attrs: nounwind uwtable
define internal i32 @test_PACKET_buf_init() #0 {
  %1 = alloca i32, align 4
  %2 = alloca [255 x i8], align 16
  %3 = alloca %struct.PACKET, align 8
  %4 = alloca i32, align 4
  call void @llvm.lifetime.start.p0(i64 255, ptr %2) #7
  call void @llvm.memset.p0.i64(ptr align 16 %2, i8 0, i64 255, i1 false)
  call void @llvm.lifetime.start.p0(i64 16, ptr %3) #7
  %5 = getelementptr inbounds [255 x i8], ptr %2, i64 0, i64 0
  %6 = call i32 @PACKET_buf_init(ptr noundef %3, ptr noundef %5, i64 noundef 4)
  %7 = icmp ne i32 %6, 0
  %8 = zext i1 %7 to i32
  %9 = call i32 @test_true(ptr noundef @.str.25, i32 noundef 309, ptr noundef @.str.26, i32 noundef %8)
  %10 = icmp ne i32 %9, 0
  br i1 %10, label %11, label %33

11:                                               ; preds = %0
  %12 = call i64 @PACKET_remaining(ptr noundef %3)
  %13 = call i32 @test_size_t_eq(ptr noundef @.str.25, i32 noundef 310, ptr noundef @.str.27, ptr noundef @.str.28, i64 noundef %12, i64 noundef 4)
  %14 = icmp ne i32 %13, 0
  br i1 %14, label %15, label %33

15:                                               ; preds = %11
  %16 = getelementptr inbounds [255 x i8], ptr %2, i64 0, i64 0
  %17 = call i32 @PACKET_buf_init(ptr noundef %3, ptr noundef %16, i64 noundef 255)
  %18 = icmp ne i32 %17, 0
  %19 = zext i1 %18 to i32
  %20 = call i32 @test_true(ptr noundef @.str.25, i32 noundef 311, ptr noundef @.str.29, i32 noundef %19)
  %21 = icmp ne i32 %20, 0
  br i1 %21, label %22, label %33

22:                                               ; preds = %15
  %23 = call i64 @PACKET_remaining(ptr noundef %3)
  %24 = call i32 @test_size_t_eq(ptr noundef @.str.25, i32 noundef 312, ptr noundef @.str.27, ptr noundef @.str.30, i64 noundef %23, i64 noundef 255)
  %25 = icmp ne i32 %24, 0
  br i1 %25, label %26, label %33

26:                                               ; preds = %22
  %27 = getelementptr inbounds [255 x i8], ptr %2, i64 0, i64 0
  %28 = call i32 @PACKET_buf_init(ptr noundef %3, ptr noundef %27, i64 noundef -1)
  %29 = icmp ne i32 %28, 0
  %30 = zext i1 %29 to i32
  %31 = call i32 @test_false(ptr noundef @.str.25, i32 noundef 313, ptr noundef @.str.31, i32 noundef %30)
  %32 = icmp ne i32 %31, 0
  br i1 %32, label %34, label %33

33:                                               ; preds = %26, %22, %15, %11, %0
  store i32 0, ptr %1, align 4
  store i32 1, ptr %4, align 4
  br label %35

34:                                               ; preds = %26
  store i32 1, ptr %1, align 4
  store i32 1, ptr %4, align 4
  br label %35

35:                                               ; preds = %34, %33
  call void @llvm.lifetime.end.p0(i64 16, ptr %3) #7
  call void @llvm.lifetime.end.p0(i64 255, ptr %2) #7
  %36 = load i32, ptr %1, align 4
  ret i32 %36
}