; Function Attrs: nounwind uwtable
define internal range(i32 0, 2) i32 @test_PACKET_buf_init() #0 {
  %1 = tail call i32 @test_true(ptr noundef nonnull @.str.25, i32 noundef 309, ptr noundef nonnull @.str.26, i32 noundef 1) #6
  %.not = icmp eq i32 %1, 0
  br i1 %.not, label %10, label %2

2:                                                ; preds = %0
  %3 = tail call i32 @test_size_t_eq(ptr noundef nonnull @.str.25, i32 noundef 310, ptr noundef nonnull @.str.27, ptr noundef nonnull @.str.28, i64 noundef 4, i64 noundef 4) #6
  %.not1 = icmp eq i32 %3, 0
  br i1 %.not1, label %10, label %4

4:                                                ; preds = %2
  %5 = tail call i32 @test_true(ptr noundef nonnull @.str.25, i32 noundef 311, ptr noundef nonnull @.str.29, i32 noundef 1) #6
  %.not2 = icmp eq i32 %5, 0
  br i1 %.not2, label %10, label %6

6:                                                ; preds = %4
  %7 = tail call i32 @test_size_t_eq(ptr noundef nonnull @.str.25, i32 noundef 312, ptr noundef nonnull @.str.27, ptr noundef nonnull @.str.30, i64 noundef 255, i64 noundef 255) #6
  %.not3 = icmp eq i32 %7, 0
  br i1 %.not3, label %10, label %8

8:                                                ; preds = %6
  %9 = tail call i32 @test_false(ptr noundef nonnull @.str.25, i32 noundef 313, ptr noundef nonnull @.str.31, i32 noundef 0) #6
  %.not4 = icmp ne i32 %9, 0
  %spec.select = zext i1 %.not4 to i32
  br label %10

10:                                               ; preds = %8, %0, %2, %4, %6
  %.0 = phi i32 [ 0, %6 ], [ 0, %4 ], [ 0, %2 ], [ 0, %0 ], [ %spec.select, %8 ]
  ret i32 %.0
}